; ModuleID = 'source-C-CXX/52/1654.c'
source_filename = "source-C-CXX/52/1654.c"
target datalayout = "e-m:e-p270:32:32-p271:32:32-p272:64:64-i64:64-f80:128-n8:16:32:64-S128"
target triple = "x86_64-pc-linux-gnu"

@.str = private unnamed_addr constant [3 x i8] c"%d\00", align 1

; Function Attrs: nofree nounwind sspstrong uwtable
define dso_local void @main() local_unnamed_addr #0 {
  %1 = alloca [20000 x i32], align 16
  %2 = alloca i32, align 4
  %3 = alloca i32, align 4
  %4 = bitcast [20000 x i32]* %1 to i8*
  call void @llvm.lifetime.start.p0i8(i64 80000, i8* nonnull %4) #5
  call void @llvm.memset.p0i8.i64(i8* noundef nonnull align 16 dereferenceable(80000) %4, i8 0, i64 80000, i1 false)
  %5 = bitcast i32* %2 to i8*
  call void @llvm.lifetime.start.p0i8(i64 4, i8* nonnull %5) #5
  %6 = bitcast i32* %3 to i8*
  call void @llvm.lifetime.start.p0i8(i64 4, i8* nonnull %6) #5
  %7 = call i32 (i8*, ...) @__isoc99_scanf(i8* getelementptr inbounds ([3 x i8], [3 x i8]* @.str, i64 0, i64 0), i32* nonnull %3)
  %8 = load i32, i32* %3, align 4, !tbaa !5
  %9 = icmp sgt i32 %8, 0
  br i1 %9, label %16, label %51

10:                                               ; preds = %34
  %11 = icmp sgt i32 %35, 0
  br i1 %11, label %12, label %51

12:                                               ; preds = %10
  %13 = add nsw i32 %35, -1
  %14 = zext i32 %13 to i64
  %15 = zext i32 %35 to i64
  br label %40

16:                                               ; preds = %0, %34
  %17 = phi i64 [ %36, %34 ], [ 0, %0 ]
  %18 = phi i32 [ %35, %34 ], [ 0, %0 ]
  %19 = call i32 (i8*, ...) @__isoc99_scanf(i8* getelementptr inbounds ([3 x i8], [3 x i8]* @.str, i64 0, i64 0), i32* nonnull %2)
  %20 = load i32, i32* %2, align 4
  %21 = icmp eq i64 %17, 0
  br i1 %21, label %30, label %24

22:                                               ; preds = %24
  %23 = icmp eq i64 %29, %17
  br i1 %23, label %30, label %24, !llvm.loop !9

24:                                               ; preds = %16, %22
  %25 = phi i64 [ %29, %22 ], [ 0, %16 ]
  %26 = getelementptr inbounds [20000 x i32], [20000 x i32]* %1, i64 0, i64 %25
  %27 = load i32, i32* %26, align 4, !tbaa !5
  %28 = icmp eq i32 %27, %20
  %29 = add nuw nsw i64 %25, 1
  br i1 %28, label %34, label %22

30:                                               ; preds = %22, %16
  %31 = sext i32 %18 to i64
  %32 = getelementptr inbounds [20000 x i32], [20000 x i32]* %1, i64 0, i64 %31
  store i32 %20, i32* %32, align 4, !tbaa !5
  %33 = add nsw i32 %18, 1
  br label %34

34:                                               ; preds = %24, %30
  %35 = phi i32 [ %33, %30 ], [ %18, %24 ]
  %36 = add nuw nsw i64 %17, 1
  %37 = load i32, i32* %3, align 4, !tbaa !5
  %38 = sext i32 %37 to i64
  %39 = icmp slt i64 %36, %38
  br i1 %39, label %16, label %10, !llvm.loop !11

40:                                               ; preds = %12, %48
  %41 = phi i64 [ 0, %12 ], [ %49, %48 ]
  %42 = getelementptr inbounds [20000 x i32], [20000 x i32]* %1, i64 0, i64 %41
  %43 = load i32, i32* %42, align 4, !tbaa !5
  %44 = call i32 (i8*, ...) @printf(i8* nonnull dereferenceable(1) getelementptr inbounds ([3 x i8], [3 x i8]* @.str, i64 0, i64 0), i32 %43)
  %45 = icmp ult i64 %41, %14
  br i1 %45, label %46, label %48

46:                                               ; preds = %40
  %47 = call i32 @putchar(i32 44)
  br label %48

48:                                               ; preds = %40, %46
  %49 = add nuw nsw i64 %41, 1
  %50 = icmp eq i64 %49, %15
  br i1 %50, label %51, label %40, !llvm.loop !12

51:                                               ; preds = %48, %0, %10
  call void @llvm.lifetime.end.p0i8(i64 4, i8* nonnull %6) #5
  call void @llvm.lifetime.end.p0i8(i64 4, i8* nonnull %5) #5
  call void @llvm.lifetime.end.p0i8(i64 80000, i8* nonnull %4) #5
  ret void
}

; Function Attrs: argmemonly mustprogress nofree nosync nounwind willreturn
declare void @llvm.lifetime.start.p0i8(i64 immarg, i8* nocapture) #1

; Function Attrs: argmemonly mustprogress nofree nounwind willreturn writeonly
declare void @llvm.memset.p0i8.i64(i8* nocapture writeonly, i8, i64, i1 immarg) #2

; Function Attrs: nofree nounwind
declare noundef i32 @__isoc99_scanf(i8* nocapture noundef readonly, ...) local_unnamed_addr #3

; Function Attrs: nofree nounwind
declare noundef i32 @printf(i8* nocapture noundef readonly, ...) local_unnamed_addr #3

; Function Attrs: argmemonly mustprogress nofree nosync nounwind willreturn
declare void @llvm.lifetime.end.p0i8(i64 immarg, i8* nocapture) #1

; Function Attrs: nofree nounwind
declare noundef i32 @putchar(i32 noundef) local_unnamed_addr #4


!llvm.module.flags = !{!0, !1, !2, !3}
!llvm.ident = !{!4}

!0 = !{i32 1, !"wchar_size", i32 4}
!1 = !{i32 7, !"PIC Level", i32 2}
!2 = !{i32 7, !"PIE Level", i32 2}
!3 = !{i32 7, !"uwtable", i32 1}
!4 = !{!"clang version 13.0.0"}
!5 = !{!6, !6, i64 0}
!6 = !{!"int", !7, i64 0}
!7 = !{!"omnipotent char", !8, i64 0}
!8 = !{!"Simple C/C++ TBAA"}
!9 = distinct !{!9, !10}
!10 = !{!"llvm.loop.mustprogress"}
!11 = distinct !{!11, !10}
!12 = distinct !{!12, !10}
